target datalayout = "e-m:e-p270:32:32-p271:32:32-p272:64:64-i64:64-i128:128-f80:128-n8:16:32:64-S128"
target triple = "x86_64-pc-linux-gnu"

%struct.expert_field = type { i32, i32 }

@hf_gsm_a_spare_bits = external global i32, align 4
@ei_gsm_a_dtap_extraneous_data = internal global %struct.expert_field zeroinitializer, align 4
@hf_gsm_a_dtap_mcs = internal global i32 0, align 4

; Function Attrs: null_pointer_is_valid sspstrong uwtable
define internal zeroext i16 @de_nw_call_ctrl_cap(ptr noundef %0, ptr noundef %1, ptr noundef %2, i32 noundef %3, i32 noundef %4, ptr noundef %5, i32 noundef %6) #1 {
  %8 = alloca ptr, align 8
  %9 = alloca ptr, align 8
  %10 = alloca ptr, align 8
  %11 = alloca i32, align 4
  %12 = alloca i32, align 4
  %13 = alloca ptr, align 8
  %14 = alloca i32, align 4
  %15 = alloca i32, align 4
  store ptr %0, ptr %8, align 8
  store ptr %1, ptr %9, align 8
  store ptr %2, ptr %10, align 8
  store i32 %3, ptr %11, align 4
  store i32 %4, ptr %12, align 4
  store ptr %5, ptr %13, align 8
  store i32 %6, ptr %14, align 4
  call void @llvm.lifetime.start.p0(i64 4, ptr %15) #7
  %16 = load i32, ptr %11, align 4
  store i32 %16, ptr %15, align 4
  %17 = load ptr, ptr %9, align 8
  %18 = load i32, ptr @hf_gsm_a_spare_bits, align 4
  %19 = load ptr, ptr %8, align 8
  %20 = load i32, ptr %15, align 4
  %21 = shl i32 %20, 3
  %22 = call ptr @proto_tree_add_bits_item(ptr noundef %17, i32 noundef %18, ptr noundef %19, i32 noundef %21, i32 noundef 7, i32 noundef 0)
  %23 = load ptr, ptr %9, align 8
  %24 = load i32, ptr @hf_gsm_a_dtap_mcs, align 4
  %25 = load ptr, ptr %8, align 8
  %26 = load i32, ptr %15, align 4
  %27 = call ptr @proto_tree_add_item(ptr noundef %23, i32 noundef %24, ptr noundef %25, i32 noundef %26, i32 noundef 1, i32 noundef 0)
  %28 = load i32, ptr %15, align 4
  %29 = add i32 %28, 1
  store i32 %29, ptr %15, align 4
  %30 = load i32, ptr %12, align 4
  %31 = load i32, ptr %15, align 4
  %32 = load i32, ptr %11, align 4
  %33 = sub i32 %31, %32
  %34 = icmp ugt i32 %30, %33
  br i1 %34, label %35, label %53

35:                                               ; preds = %7
  %36 = load ptr, ptr %9, align 8
  %37 = load ptr, ptr %10, align 8
  %38 = load ptr, ptr %8, align 8
  %39 = load i32, ptr %15, align 4
  %40 = load i32, ptr %12, align 4
  %41 = load i32, ptr %15, align 4
  %42 = load i32, ptr %11, align 4
  %43 = sub i32 %41, %42
  %44 = sub i32 %40, %43
  %45 = call ptr @proto_tree_add_expert(ptr noundef %36, ptr noundef %37, ptr noundef @ei_gsm_a_dtap_extraneous_data, ptr noundef %38, i32 noundef %39, i32 noundef %44)
  %46 = load i32, ptr %12, align 4
  %47 = load i32, ptr %15, align 4
  %48 = load i32, ptr %11, align 4
  %49 = sub i32 %47, %48
  %50 = sub i32 %46, %49
  %51 = load i32, ptr %15, align 4
  %52 = add i32 %51, %50
  store i32 %52, ptr %15, align 4
  br label %53

53:                                               ; preds = %35, %7
  %54 = load i32, ptr %12, align 4
  %55 = trunc i32 %54 to i16
  call void @llvm.lifetime.end.p0(i64 4, ptr %15) #7
  ret i16 %55
}