; Function Attrs: null_pointer_is_valid sspstrong uwtable
define internal noundef zeroext i16 @de_nw_call_ctrl_cap(ptr noundef %0, ptr noundef %1, ptr noundef %2, i32 noundef %3, i32 noundef %4, ptr readnone captures(none) %5, i32 %6) #1 {
  %8 = load i32, ptr @hf_gsm_a_spare_bits, align 4
  %9 = shl i32 %3, 3
  %10 = tail call ptr @proto_tree_add_bits_item(ptr noundef %1, i32 noundef %8, ptr noundef %0, i32 noundef %9, i32 noundef 7, i32 noundef 0)
  %11 = load i32, ptr @hf_gsm_a_dtap_mcs, align 4
  %12 = tail call ptr @proto_tree_add_item(ptr noundef %1, i32 noundef %11, ptr noundef %0, i32 noundef %3, i32 noundef 1, i32 noundef 0)
  %13 = icmp ugt i32 %4, 1
  br i1 %13, label %14, label %18

14:                                               ; preds = %7
  %15 = add i32 %3, 1
  %16 = add i32 %4, -1
  %17 = tail call ptr @proto_tree_add_expert(ptr noundef %1, ptr noundef %2, ptr noundef nonnull @ei_gsm_a_dtap_extraneous_data, ptr noundef %0, i32 noundef %15, i32 noundef %16)
  br label %18

18:                                               ; preds = %14, %7
  %19 = trunc i32 %4 to i16
  ret i16 %19
}